	.file	"divmod_10.c"
	.text
	.globl	divmod_10
	.type	divmod_10, @function
divmod_10:
.LFB0:
	.cfi_startproc
	endbr64
	pushq	%rbp
	.cfi_def_cfa_offset 16
	.cfi_offset 6, -16
	movq	%rsp, %rbp
	.cfi_def_cfa_register 6
	movl	%edi, -20(%rbp)
	movq	%rsi, -32(%rbp)
	movq	%rdx, -40(%rbp)
	movl	-20(%rbp), %eax
	orl	$1, %eax
	movl	%eax, %edx
	movl	-20(%rbp), %eax
	shrl	$2, %eax
	movl	%eax, %ecx
	movl	%edx, %eax
	subl	%ecx, %eax
	movl	%eax, -8(%rbp)
	movl	-8(%rbp), %eax
	shrl	$4, %eax
	movl	%eax, %edx
	movl	-8(%rbp), %eax
	addl	%edx, %eax
	movl	%eax, -4(%rbp)
	movl	-4(%rbp), %eax
	movl	%eax, -8(%rbp)
	movl	-4(%rbp), %eax
	shrl	$8, %eax
	movl	%eax, %edx
	movl	-8(%rbp), %eax
	addl	%edx, %eax
	movl	%eax, -4(%rbp)
	movl	-4(%rbp), %eax
	shrl	$8, %eax
	movl	%eax, %edx
	movl	-8(%rbp), %eax
	addl	%edx, %eax
	movl	%eax, -4(%rbp)
	movl	-4(%rbp), %eax
	shrl	$8, %eax
	movl	%eax, %edx
	movl	-8(%rbp), %eax
	addl	%edx, %eax
	movl	%eax, -4(%rbp)
	movl	-4(%rbp), %eax
	shrl	$8, %eax
	movl	%eax, %edx
	movl	-8(%rbp), %eax
	addl	%edx, %eax
	movl	%eax, -4(%rbp)
	movl	-4(%rbp), %eax
	shrl	$3, %eax
	movl	%eax, %edx
	movq	-32(%rbp), %rax
	movl	%edx, (%rax)
	movq	-32(%rbp), %rax
	movl	(%rax), %eax
	leal	0(,%rax,8), %edx
	movq	-32(%rbp), %rax
	movl	(%rax), %eax
	addl	%eax, %eax
	leal	(%rdx,%rax), %ecx
	movl	-20(%rbp), %eax
	subl	%ecx, %eax
	movl	%eax, %edx
	movq	-40(%rbp), %rax
	movl	%edx, (%rax)
	nop
	popq	%rbp
	.cfi_def_cfa 7, 8
	ret
	.cfi_endproc
.LFE0:
	.size	divmod_10, .-divmod_10
	.globl	DivMod_10
	.type	DivMod_10, @function
DivMod_10:
.LFB1:
	.cfi_startproc
	endbr64
	pushq	%rbp
	.cfi_def_cfa_offset 16
	.cfi_offset 6, -16
	movq	%rsp, %rbp
	.cfi_def_cfa_register 6
	movl	%edi, -4(%rbp)
	movq	%rsi, -16(%rbp)
	movq	%rdx, -24(%rbp)
	movl	-4(%rbp), %eax
	movl	%eax, %edx
	movl	$3435973837, %eax
	imulq	%rdx, %rax
	shrq	$32, %rax
	movl	%eax, %edx
	shrl	$3, %edx
	movq	-16(%rbp), %rax
	movl	%edx, (%rax)
	movl	-4(%rbp), %ecx
	movl	%ecx, %edx
	movl	$3435973837, %eax
	imulq	%rdx, %rax
	shrq	$32, %rax
	movl	%eax, %edx
	shrl	$3, %edx
	movl	%edx, %eax
	sall	$2, %eax
	addl	%edx, %eax
	addl	%eax, %eax
	subl	%eax, %ecx
	movl	%ecx, %edx
	movq	-24(%rbp), %rax
	movl	%edx, (%rax)
	nop
	popq	%rbp
	.cfi_def_cfa 7, 8
	ret
	.cfi_endproc
.LFE1:
	.size	DivMod_10, .-DivMod_10
	.globl	main
	.type	main, @function
main:
.LFB2:
	.cfi_startproc
	endbr64
	pushq	%rbp
	.cfi_def_cfa_offset 16
	.cfi_offset 6, -16
	movq	%rsp, %rbp
	.cfi_def_cfa_register 6
	subq	$16, %rsp
	movq	%fs:40, %rax
	movq	%rax, -8(%rbp)
	xorl	%eax, %eax
	leaq	-12(%rbp), %rdx
	leaq	-16(%rbp), %rax
	movq	%rax, %rsi
	movl	$100544, %edi
	call	divmod_10
	movl	$0, %eax
	movq	-8(%rbp), %rdx
	subq	%fs:40, %rdx
	je	.L5
	call	__stack_chk_fail@PLT
.L5:
	leave
	.cfi_def_cfa 7, 8
	ret
	.cfi_endproc
.LFE2:
	.size	main, .-main
	.ident	"GCC: (Ubuntu 11.4.0-1ubuntu1~22.04) 11.4.0"
	.section	.note.GNU-stack,"",@progbits
	.section	.note.gnu.property,"a"
	.align 8
	.long	1f - 0f
	.long	4f - 1f
	.long	5
0:
	.string	"GNU"
1:
	.align 8
	.long	0xc0000002
	.long	3f - 2f
2:
	.long	0x3
3:
	.align 8
4:
